; Function Attrs: mustprogress nofree norecurse nosync nounwind willreturn memory(write, argmem: readwrite, inaccessiblemem: none) uwtable
define void @_ZN3net14StrikeRegister16FreeExternalNodeEj(ptr noundef nonnull align 8 captures(none) dereferenceable(56) %0, i32 noundef %1) local_unnamed_addr #14 align 2 {
  %3 = getelementptr inbounds nuw i8, ptr %0, i64 28
  %4 = load i32, ptr %3, align 4, !tbaa !25
  %5 = getelementptr inbounds nuw i8, ptr %0, i64 48
  %6 = mul i32 %1, 24
  %7 = zext i32 %6 to i64
  %8 = load ptr, ptr %5, align 8, !tbaa !23
  %9 = getelementptr inbounds nuw i8, ptr %8, i64 %7
  store i32 %4, ptr %9, align 4, !tbaa !3
  store i32 %1, ptr %3, align 4, !tbaa !25
  ret void
}